target datalayout = "e-m:e-p270:32:32-p271:32:32-p272:64:64-i64:64-i128:128-f80:128-n8:16:32:64-S128"
target triple = "x86_64-pc-linux-gnu"

%"class.std::__cxx11::basic_string" = type { %"struct.std::__cxx11::basic_string<char>::_Alloc_hider", i64, %union.anon }
%"struct.std::__cxx11::basic_string<char>::_Alloc_hider" = type { ptr }
%union.anon = type { i64, [8 x i8] }

@.str = private unnamed_addr constant [2 x i8] c"x\00", align 1
@.str.2 = private unnamed_addr constant [2 x i8] c"p\00", align 1
@.str.60 = private unnamed_addr constant [5 x i8] c"opti\00", align 1
@.str.61 = private unnamed_addr constant [2 x i8] c"_\00", align 1
@.str.86 = private unnamed_addr constant [6 x i8] c"lam_g\00", align 1

; Function Attrs: mustprogress nounwind uwtable
define linkonce_odr noundef zeroext i1 @_ZSteqIcSt11char_traitsIcESaIcEEbRKNSt7__cxx1112basic_stringIT_T0_T1_EEPKS5_(ptr noundef nonnull align 8 dereferenceable(32) %0, ptr noundef %1) #5 comdat {
  %3 = alloca ptr, align 8
  %4 = alloca ptr, align 8
  store ptr %0, ptr %3, align 8
  store ptr %1, ptr %4, align 8
  %5 = load ptr, ptr %3, align 8
  %6 = load ptr, ptr %4, align 8
  %7 = call noundef i32 @_ZNKSt7__cxx1112basic_stringIcSt11char_traitsIcESaIcEE7compareEPKc(ptr noundef nonnull align 8 dereferenceable(32) %5, ptr noundef %6) #3
  %8 = icmp eq i32 %7, 0
  ret i1 %8
}

; Function Attrs: mustprogress uwtable
define noundef zeroext i1 @_ZNK6casadi8OptiNode15parse_opti_nameERKNSt7__cxx1112basic_stringIcSt11char_traitsIcESaIcEEERNS_12VariableTypeE(ptr noundef nonnull align 8 dereferenceable(672) %0, ptr noundef nonnull align 8 dereferenceable(32) %1, ptr noundef nonnull align 4 dereferenceable(4) %2) #4 align 2 personality ptr @__gxx_personality_v0 {
  %4 = alloca i1, align 1
  %5 = alloca ptr, align 8
  %6 = alloca ptr, align 8
  %7 = alloca ptr, align 8
  %8 = alloca i64, align 8
  %9 = alloca %"class.std::__cxx11::basic_string", align 8
  %10 = alloca ptr, align 8
  %11 = alloca i32, align 4
  %12 = alloca %"class.std::__cxx11::basic_string", align 8
  %13 = alloca %"class.std::__cxx11::basic_string", align 8
  store ptr %0, ptr %5, align 8
  store ptr %1, ptr %6, align 8
  store ptr %2, ptr %7, align 8
  %14 = load ptr, ptr %6, align 8
  %15 = call noundef i64 @_ZNKSt7__cxx1112basic_stringIcSt11char_traitsIcESaIcEE4findEPKcm(ptr noundef nonnull align 8 dereferenceable(32) %14, ptr noundef @.str.60, i64 noundef 0) #3
  store i64 %15, ptr %8, align 8
  %16 = load i64, ptr %8, align 8
  %17 = icmp ne i64 %16, 0
  br i1 %17, label %18, label %19

18:                                               ; preds = %3
  store i1 false, ptr %4, align 1
  br label %63

19:                                               ; preds = %3
  %20 = load ptr, ptr %6, align 8
  %21 = call noundef i64 @_ZNKSt7__cxx1112basic_stringIcSt11char_traitsIcESaIcEE4findEPKcm(ptr noundef nonnull align 8 dereferenceable(32) %20, ptr noundef @.str.61, i64 noundef 0) #3
  store i64 %21, ptr %8, align 8
  %22 = load i64, ptr %8, align 8
  %23 = add nsw i64 %22, 1
  store i64 %23, ptr %8, align 8
  %24 = load i64, ptr %8, align 8
  %25 = icmp eq i64 %24, -1
  br i1 %25, label %26, label %27

26:                                               ; preds = %19
  store i1 false, ptr %4, align 1
  br label %63

27:                                               ; preds = %19
  %28 = load ptr, ptr %6, align 8
  %29 = load i64, ptr %8, align 8
  call void @_ZNKSt7__cxx1112basic_stringIcSt11char_traitsIcESaIcEE6substrEmm(ptr dead_on_unwind writable sret(%"class.std::__cxx11::basic_string") align 8 %9, ptr noundef nonnull align 8 dereferenceable(32) %28, i64 noundef %29, i64 noundef 1)
  %30 = invoke noundef zeroext i1 @_ZSteqIcSt11char_traitsIcESaIcEEbRKNSt7__cxx1112basic_stringIT_T0_T1_EEPKS5_(ptr noundef nonnull align 8 dereferenceable(32) %9, ptr noundef @.str)
          to label %31 unwind label %34

31:                                               ; preds = %27
  call void @_ZNSt7__cxx1112basic_stringIcSt11char_traitsIcESaIcEED1Ev(ptr noundef nonnull align 8 dereferenceable(32) %9) #3
  br i1 %30, label %32, label %38

32:                                               ; preds = %31
  %33 = load ptr, ptr %7, align 8
  store i32 0, ptr %33, align 4
  store i1 true, ptr %4, align 1
  br label %63

34:                                               ; preds = %27
  %35 = landingpad { ptr, i32 }
          cleanup
  %36 = extractvalue { ptr, i32 } %35, 0
  store ptr %36, ptr %10, align 8
  %37 = extractvalue { ptr, i32 } %35, 1
  store i32 %37, ptr %11, align 4
  call void @_ZNSt7__cxx1112basic_stringIcSt11char_traitsIcESaIcEED1Ev(ptr noundef nonnull align 8 dereferenceable(32) %9) #3
  br label %65

38:                                               ; preds = %31
  %39 = load ptr, ptr %6, align 8
  %40 = load i64, ptr %8, align 8
  call void @_ZNKSt7__cxx1112basic_stringIcSt11char_traitsIcESaIcEE6substrEmm(ptr dead_on_unwind writable sret(%"class.std::__cxx11::basic_string") align 8 %12, ptr noundef nonnull align 8 dereferenceable(32) %39, i64 noundef %40, i64 noundef 1)
  %41 = invoke noundef zeroext i1 @_ZSteqIcSt11char_traitsIcESaIcEEbRKNSt7__cxx1112basic_stringIT_T0_T1_EEPKS5_(ptr noundef nonnull align 8 dereferenceable(32) %12, ptr noundef @.str.2)
          to label %42 unwind label %45

42:                                               ; preds = %38
  call void @_ZNSt7__cxx1112basic_stringIcSt11char_traitsIcESaIcEED1Ev(ptr noundef nonnull align 8 dereferenceable(32) %12) #3
  br i1 %41, label %43, label %49

43:                                               ; preds = %42
  %44 = load ptr, ptr %7, align 8
  store i32 1, ptr %44, align 4
  store i1 true, ptr %4, align 1
  br label %63

45:                                               ; preds = %38
  %46 = landingpad { ptr, i32 }
          cleanup
  %47 = extractvalue { ptr, i32 } %46, 0
  store ptr %47, ptr %10, align 8
  %48 = extractvalue { ptr, i32 } %46, 1
  store i32 %48, ptr %11, align 4
  call void @_ZNSt7__cxx1112basic_stringIcSt11char_traitsIcESaIcEED1Ev(ptr noundef nonnull align 8 dereferenceable(32) %12) #3
  br label %65

49:                                               ; preds = %42
  %50 = load ptr, ptr %6, align 8
  %51 = load i64, ptr %8, align 8
  call void @_ZNKSt7__cxx1112basic_stringIcSt11char_traitsIcESaIcEE6substrEmm(ptr dead_on_unwind writable sret(%"class.std::__cxx11::basic_string") align 8 %13, ptr noundef nonnull align 8 dereferenceable(32) %50, i64 noundef %51, i64 noundef 5)
  %52 = invoke noundef zeroext i1 @_ZSteqIcSt11char_traitsIcESaIcEEbRKNSt7__cxx1112basic_stringIT_T0_T1_EEPKS5_(ptr noundef nonnull align 8 dereferenceable(32) %13, ptr noundef @.str.86)
          to label %53 unwind label %56

53:                                               ; preds = %49
  call void @_ZNSt7__cxx1112basic_stringIcSt11char_traitsIcESaIcEED1Ev(ptr noundef nonnull align 8 dereferenceable(32) %13) #3
  br i1 %52, label %54, label %60

54:                                               ; preds = %53
  %55 = load ptr, ptr %7, align 8
  store i32 2, ptr %55, align 4
  store i1 true, ptr %4, align 1
  br label %63

56:                                               ; preds = %49
  %57 = landingpad { ptr, i32 }
          cleanup
  %58 = extractvalue { ptr, i32 } %57, 0
  store ptr %58, ptr %10, align 8
  %59 = extractvalue { ptr, i32 } %57, 1
  store i32 %59, ptr %11, align 4
  call void @_ZNSt7__cxx1112basic_stringIcSt11char_traitsIcESaIcEED1Ev(ptr noundef nonnull align 8 dereferenceable(32) %13) #3
  br label %65

60:                                               ; preds = %53
  br label %61

61:                                               ; preds = %60
  br label %62

62:                                               ; preds = %61
  store i1 false, ptr %4, align 1
  br label %63

63:                                               ; preds = %62, %54, %43, %32, %26, %18
  %64 = load i1, ptr %4, align 1
  ret i1 %64

65:                                               ; preds = %56, %45, %34
  %66 = load ptr, ptr %10, align 8
  %67 = load i32, ptr %11, align 4
  %68 = insertvalue { ptr, i32 } poison, ptr %66, 0
  %69 = insertvalue { ptr, i32 } %68, i32 %67, 1
  resume { ptr, i32 } %69
}